; ModuleID = '39/1958.c'
source_filename = "39/1958.c"
target datalayout = "e-m:e-p270:32:32-p271:32:32-p272:64:64-i64:64-f80:128-n8:16:32:64-S128"
target triple = "x86_64-pc-linux-gnu"

%struct.stu = type { [20 x i8], i32, i32, i8, i8, i32 }

@.str = private unnamed_addr constant [3 x i8] c"%d\00", align 1
@.str.1 = private unnamed_addr constant [18 x i8] c"%s %d %d %c %c %d\00", align 1
@.str.2 = private unnamed_addr constant [10 x i8] c"%s\0A%d\0A%d\0A\00", align 1

; Function Attrs: noinline nounwind uwtable
define dso_local i32 @main(i32 %0, i8** %1) #0 {
  %3 = alloca i32, align 4
  %4 = alloca i32, align 4
  %5 = alloca i8**, align 8
  %6 = alloca i32, align 4
  %7 = alloca i32, align 4
  %8 = alloca i32, align 4
  %9 = alloca [100 x i32], align 16
  %10 = alloca i32, align 4
  %11 = alloca i32, align 4
  %12 = alloca [100 x %struct.stu], align 16
  store i32 0, i32* %3, align 4
  store i32 %0, i32* %4, align 4
  store i8** %1, i8*** %5, align 8
  store i32 0, i32* %10, align 4
  store i32 0, i32* %11, align 4
  %13 = call i32 (i8*, ...) @__isoc99_scanf(i8* getelementptr inbounds ([3 x i8], [3 x i8]* @.str, i64 0, i64 0), i32* %7)
  store i32 0, i32* %8, align 4
  br label %14

14:                                               ; preds = %45, %2
  %15 = load i32, i32* %8, align 4
  %16 = load i32, i32* %7, align 4
  %17 = icmp slt i32 %15, %16
  br i1 %17, label %18, label %48

18:                                               ; preds = %14
  %19 = load i32, i32* %8, align 4
  %20 = sext i32 %19 to i64
  %21 = getelementptr inbounds [100 x %struct.stu], [100 x %struct.stu]* %12, i64 0, i64 %20
  %22 = getelementptr inbounds %struct.stu, %struct.stu* %21, i32 0, i32 0
  %23 = getelementptr inbounds [20 x i8], [20 x i8]* %22, i64 0, i64 0
  %24 = load i32, i32* %8, align 4
  %25 = sext i32 %24 to i64
  %26 = getelementptr inbounds [100 x %struct.stu], [100 x %struct.stu]* %12, i64 0, i64 %25
  %27 = getelementptr inbounds %struct.stu, %struct.stu* %26, i32 0, i32 1
  %28 = load i32, i32* %8, align 4
  %29 = sext i32 %28 to i64
  %30 = getelementptr inbounds [100 x %struct.stu], [100 x %struct.stu]* %12, i64 0, i64 %29
  %31 = getelementptr inbounds %struct.stu, %struct.stu* %30, i32 0, i32 2
  %32 = load i32, i32* %8, align 4
  %33 = sext i32 %32 to i64
  %34 = getelementptr inbounds [100 x %struct.stu], [100 x %struct.stu]* %12, i64 0, i64 %33
  %35 = getelementptr inbounds %struct.stu, %struct.stu* %34, i32 0, i32 3
  %36 = load i32, i32* %8, align 4
  %37 = sext i32 %36 to i64
  %38 = getelementptr inbounds [100 x %struct.stu], [100 x %struct.stu]* %12, i64 0, i64 %37
  %39 = getelementptr inbounds %struct.stu, %struct.stu* %38, i32 0, i32 4
  %40 = load i32, i32* %8, align 4
  %41 = sext i32 %40 to i64
  %42 = getelementptr inbounds [100 x %struct.stu], [100 x %struct.stu]* %12, i64 0, i64 %41
  %43 = getelementptr inbounds %struct.stu, %struct.stu* %42, i32 0, i32 5
  %44 = call i32 (i8*, ...) @__isoc99_scanf(i8* getelementptr inbounds ([18 x i8], [18 x i8]* @.str.1, i64 0, i64 0), i8* %23, i32* %27, i32* %31, i8* %35, i8* %39, i32* %43)
  br label %45

45:                                               ; preds = %18
  %46 = load i32, i32* %8, align 4
  %47 = add nsw i32 %46, 1
  store i32 %47, i32* %8, align 4
  br label %14

48:                                               ; preds = %14
  store i32 0, i32* %8, align 4
  br label %49

49:                                               ; preds = %158, %48
  %50 = load i32, i32* %8, align 4
  %51 = load i32, i32* %7, align 4
  %52 = icmp slt i32 %50, %51
  br i1 %52, label %53, label %161

53:                                               ; preds = %49
  %54 = load i32, i32* %8, align 4
  %55 = sext i32 %54 to i64
  %56 = getelementptr inbounds [100 x %struct.stu], [100 x %struct.stu]* %12, i64 0, i64 %55
  %57 = getelementptr inbounds %struct.stu, %struct.stu* %56, i32 0, i32 1
  %58 = load i32, i32* %57, align 4
  %59 = icmp sgt i32 %58, 80
  br i1 %59, label %60, label %67

60:                                               ; preds = %53
  %61 = load i32, i32* %8, align 4
  %62 = sext i32 %61 to i64
  %63 = getelementptr inbounds [100 x %struct.stu], [100 x %struct.stu]* %12, i64 0, i64 %62
  %64 = getelementptr inbounds %struct.stu, %struct.stu* %63, i32 0, i32 5
  %65 = load i32, i32* %64, align 4
  %66 = icmp sge i32 %65, 1
  br label %67

67:                                               ; preds = %60, %53
  %68 = phi i1 [ false, %53 ], [ %66, %60 ]
  %69 = zext i1 %68 to i32
  %70 = mul nsw i32 8000, %69
  %71 = load i32, i32* %8, align 4
  %72 = sext i32 %71 to i64
  %73 = getelementptr inbounds [100 x %struct.stu], [100 x %struct.stu]* %12, i64 0, i64 %72
  %74 = getelementptr inbounds %struct.stu, %struct.stu* %73, i32 0, i32 1
  %75 = load i32, i32* %74, align 4
  %76 = icmp sgt i32 %75, 85
  br i1 %76, label %77, label %84

77:                                               ; preds = %67
  %78 = load i32, i32* %8, align 4
  %79 = sext i32 %78 to i64
  %80 = getelementptr inbounds [100 x %struct.stu], [100 x %struct.stu]* %12, i64 0, i64 %79
  %81 = getelementptr inbounds %struct.stu, %struct.stu* %80, i32 0, i32 2
  %82 = load i32, i32* %81, align 4
  %83 = icmp sgt i32 %82, 80
  br label %84

84:                                               ; preds = %77, %67
  %85 = phi i1 [ false, %67 ], [ %83, %77 ]
  %86 = zext i1 %85 to i32
  %87 = mul nsw i32 4000, %86
  %88 = add nsw i32 %70, %87
  %89 = load i32, i32* %8, align 4
  %90 = sext i32 %89 to i64
  %91 = getelementptr inbounds [100 x %struct.stu], [100 x %struct.stu]* %12, i64 0, i64 %90
  %92 = getelementptr inbounds %struct.stu, %struct.stu* %91, i32 0, i32 1
  %93 = load i32, i32* %92, align 4
  %94 = icmp sgt i32 %93, 90
  %95 = zext i1 %94 to i32
  %96 = mul nsw i32 2000, %95
  %97 = add nsw i32 %88, %96
  %98 = load i32, i32* %8, align 4
  %99 = sext i32 %98 to i64
  %100 = getelementptr inbounds [100 x %struct.stu], [100 x %struct.stu]* %12, i64 0, i64 %99
  %101 = getelementptr inbounds %struct.stu, %struct.stu* %100, i32 0, i32 1
  %102 = load i32, i32* %101, align 4
  %103 = icmp sgt i32 %102, 85
  br i1 %103, label %104, label %112

104:                                              ; preds = %84
  %105 = load i32, i32* %8, align 4
  %106 = sext i32 %105 to i64
  %107 = getelementptr inbounds [100 x %struct.stu], [100 x %struct.stu]* %12, i64 0, i64 %106
  %108 = getelementptr inbounds %struct.stu, %struct.stu* %107, i32 0, i32 4
  %109 = load i8, i8* %108, align 1
  %110 = sext i8 %109 to i32
  %111 = icmp eq i32 %110, 89
  br label %112

112:                                              ; preds = %104, %84
  %113 = phi i1 [ false, %84 ], [ %111, %104 ]
  %114 = zext i1 %113 to i32
  %115 = mul nsw i32 1000, %114
  %116 = add nsw i32 %97, %115
  %117 = load i32, i32* %8, align 4
  %118 = sext i32 %117 to i64
  %119 = getelementptr inbounds [100 x %struct.stu], [100 x %struct.stu]* %12, i64 0, i64 %118
  %120 = getelementptr inbounds %struct.stu, %struct.stu* %119, i32 0, i32 2
  %121 = load i32, i32* %120, align 4
  %122 = icmp sgt i32 %121, 80
  br i1 %122, label %123, label %131

123:                                              ; preds = %112
  %124 = load i32, i32* %8, align 4
  %125 = sext i32 %124 to i64
  %126 = getelementptr inbounds [100 x %struct.stu], [100 x %struct.stu]* %12, i64 0, i64 %125
  %127 = getelementptr inbounds %struct.stu, %struct.stu* %126, i32 0, i32 3
  %128 = load i8, i8* %127, align 4
  %129 = sext i8 %128 to i32
  %130 = icmp eq i32 %129, 89
  br label %131

131:                                              ; preds = %123, %112
  %132 = phi i1 [ false, %112 ], [ %130, %123 ]
  %133 = zext i1 %132 to i32
  %134 = mul nsw i32 850, %133
  %135 = add nsw i32 %116, %134
  %136 = load i32, i32* %8, align 4
  %137 = sext i32 %136 to i64
  %138 = getelementptr inbounds [100 x i32], [100 x i32]* %9, i64 0, i64 %137
  store i32 %135, i32* %138, align 4
  %139 = load i32, i32* %10, align 4
  %140 = load i32, i32* %8, align 4
  %141 = sext i32 %140 to i64
  %142 = getelementptr inbounds [100 x i32], [100 x i32]* %9, i64 0, i64 %141
  %143 = load i32, i32* %142, align 4
  %144 = add nsw i32 %139, %143
  store i32 %144, i32* %10, align 4
  %145 = load i32, i32* %8, align 4
  %146 = sext i32 %145 to i64
  %147 = getelementptr inbounds [100 x i32], [100 x i32]* %9, i64 0, i64 %146
  %148 = load i32, i32* %147, align 4
  %149 = load i32, i32* %11, align 4
  %150 = icmp sgt i32 %148, %149
  br i1 %150, label %151, label %157

151:                                              ; preds = %131
  %152 = load i32, i32* %8, align 4
  %153 = sext i32 %152 to i64
  %154 = getelementptr inbounds [100 x i32], [100 x i32]* %9, i64 0, i64 %153
  %155 = load i32, i32* %154, align 4
  store i32 %155, i32* %11, align 4
  %156 = load i32, i32* %8, align 4
  store i32 %156, i32* %6, align 4
  br label %157

157:                                              ; preds = %151, %131
  br label %158

158:                                              ; preds = %157
  %159 = load i32, i32* %8, align 4
  %160 = add nsw i32 %159, 1
  store i32 %160, i32* %8, align 4
  br label %49

161:                                              ; preds = %49
  %162 = load i32, i32* %6, align 4
  %163 = sext i32 %162 to i64
  %164 = getelementptr inbounds [100 x %struct.stu], [100 x %struct.stu]* %12, i64 0, i64 %163
  %165 = getelementptr inbounds %struct.stu, %struct.stu* %164, i32 0, i32 0
  %166 = getelementptr inbounds [20 x i8], [20 x i8]* %165, i64 0, i64 0
  %167 = load i32, i32* %11, align 4
  %168 = load i32, i32* %10, align 4
  %169 = call i32 (i8*, ...) @printf(i8* getelementptr inbounds ([10 x i8], [10 x i8]* @.str.2, i64 0, i64 0), i8* %166, i32 %167, i32 %168)
  ret i32 0
}

declare dso_local i32 @__isoc99_scanf(i8*, ...) #1

declare dso_local i32 @printf(i8*, ...) #1


!llvm.module.flags = !{!0}
!llvm.ident = !{!1}

!0 = !{i32 1, !"wchar_size", i32 4}
!1 = !{!"clang version 10.0.0-4ubuntu1 "}
